target datalayout = "e-m:e-p270:32:32-p271:32:32-p272:64:64-i64:64-i128:128-f80:128-n8:16:32:64-S128"
target triple = "x86_64-pc-linux-gnu"

%struct.XXH64_state_s = type { i64, [4 x i64], [4 x i64], i32, i32, i64 }

; Function Attrs: mustprogress nounwind uwtable
define internal noundef i64 @_ZL10XXH_read64PKv(ptr noundef %0) #4 {
  %2 = alloca ptr, align 8
  store ptr %0, ptr %2, align 8, !tbaa !4
  %3 = load ptr, ptr %2, align 8, !tbaa !4
  %4 = load i64, ptr %3, align 1, !tbaa !8
  ret i64 %4
}

; Function Attrs: mustprogress nounwind uwtable
define internal noundef i64 @_ZL11XXH64_roundmm(i64 noundef %0, i64 noundef %1) #4 {
  %3 = alloca i64, align 8
  %4 = alloca i64, align 8
  store i64 %0, ptr %3, align 8, !tbaa !8
  store i64 %1, ptr %4, align 8, !tbaa !8
  %5 = load i64, ptr %4, align 8, !tbaa !8
  %6 = mul i64 %5, -4417276706812531889
  %7 = load i64, ptr %3, align 8, !tbaa !8
  %8 = add i64 %7, %6
  store i64 %8, ptr %3, align 8, !tbaa !8
  %9 = load i64, ptr %3, align 8, !tbaa !8
  %10 = call i64 @llvm.fshl.i64(i64 %9, i64 %9, i64 31)
  store i64 %10, ptr %3, align 8, !tbaa !8
  %11 = load i64, ptr %3, align 8, !tbaa !8
  %12 = mul i64 %11, -7046029288634856825
  store i64 %12, ptr %3, align 8, !tbaa !8
  %13 = load i64, ptr %3, align 8, !tbaa !8
  ret i64 %13
}

; Function Attrs: alwaysinline mustprogress uwtable
define internal noundef i64 @_ZL12XXH_readLE64PKv(ptr noundef %0) #7 {
  %2 = alloca ptr, align 8
  store ptr %0, ptr %2, align 8, !tbaa !4
  %3 = load ptr, ptr %2, align 8, !tbaa !4
  %4 = call noundef i64 @_ZL10XXH_read64PKv(ptr noundef %3)
  ret i64 %4
}

; Function Attrs: mustprogress nounwind uwtable
define internal noundef ptr @_ZL10XXH_memcpyPvPKvm(ptr noundef %0, ptr noundef %1, i64 noundef %2) #4 {
  %4 = alloca ptr, align 8
  %5 = alloca ptr, align 8
  %6 = alloca i64, align 8
  store ptr %0, ptr %4, align 8, !tbaa !4
  store ptr %1, ptr %5, align 8, !tbaa !4
  store i64 %2, ptr %6, align 8, !tbaa !8
  %7 = load ptr, ptr %4, align 8, !tbaa !4
  %8 = load ptr, ptr %5, align 8, !tbaa !4
  %9 = load i64, ptr %6, align 8, !tbaa !8
  call void @llvm.memcpy.p0.p0.i64(ptr align 1 %7, ptr align 1 %8, i64 %9, i1 false)
  ret ptr %7
}

; Function Attrs: mustprogress uwtable
define i32 @ROCKSDB_XXH64_update(ptr noundef captures(none) %0, ptr noundef captures(none) %1, i64 noundef %2) #3 {
  %4 = alloca i32, align 4
  %5 = alloca ptr, align 8
  %6 = alloca ptr, align 8
  %7 = alloca i64, align 8
  %8 = alloca ptr, align 8
  %9 = alloca ptr, align 8
  %10 = alloca i32, align 4
  %11 = alloca ptr, align 8
  store ptr %0, ptr %5, align 8, !tbaa !32
  store ptr %1, ptr %6, align 8, !tbaa !4
  store i64 %2, ptr %7, align 8, !tbaa !8
  %12 = load ptr, ptr %6, align 8, !tbaa !4
  %13 = icmp eq ptr %12, null
  br i1 %13, label %14, label %19

14:                                               ; preds = %3
  %15 = load i64, ptr %7, align 8, !tbaa !8
  %16 = icmp eq i64 %15, 0
  br i1 %16, label %18, label %17

17:                                               ; preds = %14
  unreachable

18:                                               ; preds = %14
  store i32 0, ptr %4, align 4
  br label %225

19:                                               ; preds = %3
  call void @llvm.lifetime.start.p0(i64 8, ptr %8) #22
  %20 = load ptr, ptr %6, align 8, !tbaa !4
  store ptr %20, ptr %8, align 8, !tbaa !12
  call void @llvm.lifetime.start.p0(i64 8, ptr %9) #22
  %21 = load ptr, ptr %8, align 8, !tbaa !12
  %22 = load i64, ptr %7, align 8, !tbaa !8
  %23 = getelementptr inbounds nuw i8, ptr %21, i64 %22
  store ptr %23, ptr %9, align 8, !tbaa !12
  %24 = load i64, ptr %7, align 8, !tbaa !8
  %25 = load ptr, ptr %5, align 8, !tbaa !32
  %26 = getelementptr inbounds nuw %struct.XXH64_state_s, ptr %25, i32 0, i32 0
  %27 = load i64, ptr %26, align 8, !tbaa !34
  %28 = add i64 %27, %24
  store i64 %28, ptr %26, align 8, !tbaa !34
  %29 = load ptr, ptr %5, align 8, !tbaa !32
  %30 = getelementptr inbounds nuw %struct.XXH64_state_s, ptr %29, i32 0, i32 3
  %31 = load i32, ptr %30, align 8, !tbaa !36
  %32 = zext i32 %31 to i64
  %33 = load i64, ptr %7, align 8, !tbaa !8
  %34 = add i64 %32, %33
  %35 = icmp ult i64 %34, 32
  br i1 %35, label %36, label %54

36:                                               ; preds = %19
  %37 = load ptr, ptr %5, align 8, !tbaa !32
  %38 = getelementptr inbounds nuw %struct.XXH64_state_s, ptr %37, i32 0, i32 2
  %39 = getelementptr inbounds [4 x i64], ptr %38, i64 0, i64 0
  %40 = load ptr, ptr %5, align 8, !tbaa !32
  %41 = getelementptr inbounds nuw %struct.XXH64_state_s, ptr %40, i32 0, i32 3
  %42 = load i32, ptr %41, align 8, !tbaa !36
  %43 = zext i32 %42 to i64
  %44 = getelementptr inbounds nuw i8, ptr %39, i64 %43
  %45 = load ptr, ptr %6, align 8, !tbaa !4
  %46 = load i64, ptr %7, align 8, !tbaa !8
  %47 = call noundef ptr @_ZL10XXH_memcpyPvPKvm(ptr noundef %44, ptr noundef %45, i64 noundef %46)
  %48 = load i64, ptr %7, align 8, !tbaa !8
  %49 = trunc i64 %48 to i32
  %50 = load ptr, ptr %5, align 8, !tbaa !32
  %51 = getelementptr inbounds nuw %struct.XXH64_state_s, ptr %50, i32 0, i32 3
  %52 = load i32, ptr %51, align 8, !tbaa !36
  %53 = add i32 %52, %49
  store i32 %53, ptr %51, align 8, !tbaa !36
  store i32 0, ptr %4, align 4
  store i32 1, ptr %10, align 4
  br label %222

54:                                               ; preds = %19
  %55 = load ptr, ptr %5, align 8, !tbaa !32
  %56 = getelementptr inbounds nuw %struct.XXH64_state_s, ptr %55, i32 0, i32 3
  %57 = load i32, ptr %56, align 8, !tbaa !36
  %58 = icmp ne i32 %57, 0
  br i1 %58, label %59, label %136

59:                                               ; preds = %54
  %60 = load ptr, ptr %5, align 8, !tbaa !32
  %61 = getelementptr inbounds nuw %struct.XXH64_state_s, ptr %60, i32 0, i32 2
  %62 = getelementptr inbounds [4 x i64], ptr %61, i64 0, i64 0
  %63 = load ptr, ptr %5, align 8, !tbaa !32
  %64 = getelementptr inbounds nuw %struct.XXH64_state_s, ptr %63, i32 0, i32 3
  %65 = load i32, ptr %64, align 8, !tbaa !36
  %66 = zext i32 %65 to i64
  %67 = getelementptr inbounds nuw i8, ptr %62, i64 %66
  %68 = load ptr, ptr %6, align 8, !tbaa !4
  %69 = load ptr, ptr %5, align 8, !tbaa !32
  %70 = getelementptr inbounds nuw %struct.XXH64_state_s, ptr %69, i32 0, i32 3
  %71 = load i32, ptr %70, align 8, !tbaa !36
  %72 = sub i32 32, %71
  %73 = zext i32 %72 to i64
  %74 = call noundef ptr @_ZL10XXH_memcpyPvPKvm(ptr noundef %67, ptr noundef %68, i64 noundef %73)
  %75 = load ptr, ptr %5, align 8, !tbaa !32
  %76 = getelementptr inbounds nuw %struct.XXH64_state_s, ptr %75, i32 0, i32 1
  %77 = getelementptr inbounds [4 x i64], ptr %76, i64 0, i64 0
  %78 = load i64, ptr %77, align 8, !tbaa !8
  %79 = load ptr, ptr %5, align 8, !tbaa !32
  %80 = getelementptr inbounds nuw %struct.XXH64_state_s, ptr %79, i32 0, i32 2
  %81 = getelementptr inbounds [4 x i64], ptr %80, i64 0, i64 0
  %82 = getelementptr inbounds i64, ptr %81, i64 0
  %83 = call noundef i64 @_ZL12XXH_readLE64PKv(ptr noundef %82)
  %84 = call noundef i64 @_ZL11XXH64_roundmm(i64 noundef %78, i64 noundef %83)
  %85 = load ptr, ptr %5, align 8, !tbaa !32
  %86 = getelementptr inbounds nuw %struct.XXH64_state_s, ptr %85, i32 0, i32 1
  %87 = getelementptr inbounds [4 x i64], ptr %86, i64 0, i64 0
  store i64 %84, ptr %87, align 8, !tbaa !8
  %88 = load ptr, ptr %5, align 8, !tbaa !32
  %89 = getelementptr inbounds nuw %struct.XXH64_state_s, ptr %88, i32 0, i32 1
  %90 = getelementptr inbounds [4 x i64], ptr %89, i64 0, i64 1
  %91 = load i64, ptr %90, align 8, !tbaa !8
  %92 = load ptr, ptr %5, align 8, !tbaa !32
  %93 = getelementptr inbounds nuw %struct.XXH64_state_s, ptr %92, i32 0, i32 2
  %94 = getelementptr inbounds [4 x i64], ptr %93, i64 0, i64 0
  %95 = getelementptr inbounds i64, ptr %94, i64 1
  %96 = call noundef i64 @_ZL12XXH_readLE64PKv(ptr noundef %95)
  %97 = call noundef i64 @_ZL11XXH64_roundmm(i64 noundef %91, i64 noundef %96)
  %98 = load ptr, ptr %5, align 8, !tbaa !32
  %99 = getelementptr inbounds nuw %struct.XXH64_state_s, ptr %98, i32 0, i32 1
  %100 = getelementptr inbounds [4 x i64], ptr %99, i64 0, i64 1
  store i64 %97, ptr %100, align 8, !tbaa !8
  %101 = load ptr, ptr %5, align 8, !tbaa !32
  %102 = getelementptr inbounds nuw %struct.XXH64_state_s, ptr %101, i32 0, i32 1
  %103 = getelementptr inbounds [4 x i64], ptr %102, i64 0, i64 2
  %104 = load i64, ptr %103, align 8, !tbaa !8
  %105 = load ptr, ptr %5, align 8, !tbaa !32
  %106 = getelementptr inbounds nuw %struct.XXH64_state_s, ptr %105, i32 0, i32 2
  %107 = getelementptr inbounds [4 x i64], ptr %106, i64 0, i64 0
  %108 = getelementptr inbounds i64, ptr %107, i64 2
  %109 = call noundef i64 @_ZL12XXH_readLE64PKv(ptr noundef %108)
  %110 = call noundef i64 @_ZL11XXH64_roundmm(i64 noundef %104, i64 noundef %109)
  %111 = load ptr, ptr %5, align 8, !tbaa !32
  %112 = getelementptr inbounds nuw %struct.XXH64_state_s, ptr %111, i32 0, i32 1
  %113 = getelementptr inbounds [4 x i64], ptr %112, i64 0, i64 2
  store i64 %110, ptr %113, align 8, !tbaa !8
  %114 = load ptr, ptr %5, align 8, !tbaa !32
  %115 = getelementptr inbounds nuw %struct.XXH64_state_s, ptr %114, i32 0, i32 1
  %116 = getelementptr inbounds [4 x i64], ptr %115, i64 0, i64 3
  %117 = load i64, ptr %116, align 8, !tbaa !8
  %118 = load ptr, ptr %5, align 8, !tbaa !32
  %119 = getelementptr inbounds nuw %struct.XXH64_state_s, ptr %118, i32 0, i32 2
  %120 = getelementptr inbounds [4 x i64], ptr %119, i64 0, i64 0
  %121 = getelementptr inbounds i64, ptr %120, i64 3
  %122 = call noundef i64 @_ZL12XXH_readLE64PKv(ptr noundef %121)
  %123 = call noundef i64 @_ZL11XXH64_roundmm(i64 noundef %117, i64 noundef %122)
  %124 = load ptr, ptr %5, align 8, !tbaa !32
  %125 = getelementptr inbounds nuw %struct.XXH64_state_s, ptr %124, i32 0, i32 1
  %126 = getelementptr inbounds [4 x i64], ptr %125, i64 0, i64 3
  store i64 %123, ptr %126, align 8, !tbaa !8
  %127 = load ptr, ptr %5, align 8, !tbaa !32
  %128 = getelementptr inbounds nuw %struct.XXH64_state_s, ptr %127, i32 0, i32 3
  %129 = load i32, ptr %128, align 8, !tbaa !36
  %130 = sub i32 32, %129
  %131 = load ptr, ptr %8, align 8, !tbaa !12
  %132 = zext i32 %130 to i64
  %133 = getelementptr inbounds nuw i8, ptr %131, i64 %132
  store ptr %133, ptr %8, align 8, !tbaa !12
  %134 = load ptr, ptr %5, align 8, !tbaa !32
  %135 = getelementptr inbounds nuw %struct.XXH64_state_s, ptr %134, i32 0, i32 3
  store i32 0, ptr %135, align 8, !tbaa !36
  br label %136

136:                                              ; preds = %59, %54
  %137 = load ptr, ptr %8, align 8, !tbaa !12
  %138 = getelementptr inbounds i8, ptr %137, i64 32
  %139 = load ptr, ptr %9, align 8, !tbaa !12
  %140 = icmp ule ptr %138, %139
  br i1 %140, label %141, label %198

141:                                              ; preds = %136
  call void @llvm.lifetime.start.p0(i64 8, ptr %11) #22
  %142 = load ptr, ptr %9, align 8, !tbaa !12
  %143 = getelementptr inbounds i8, ptr %142, i64 -32
  store ptr %143, ptr %11, align 8, !tbaa !12
  br label %144

144:                                              ; preds = %193, %141
  %145 = load ptr, ptr %5, align 8, !tbaa !32
  %146 = getelementptr inbounds nuw %struct.XXH64_state_s, ptr %145, i32 0, i32 1
  %147 = getelementptr inbounds [4 x i64], ptr %146, i64 0, i64 0
  %148 = load i64, ptr %147, align 8, !tbaa !8
  %149 = load ptr, ptr %8, align 8, !tbaa !12
  %150 = call noundef i64 @_ZL12XXH_readLE64PKv(ptr noundef %149)
  %151 = call noundef i64 @_ZL11XXH64_roundmm(i64 noundef %148, i64 noundef %150)
  %152 = load ptr, ptr %5, align 8, !tbaa !32
  %153 = getelementptr inbounds nuw %struct.XXH64_state_s, ptr %152, i32 0, i32 1
  %154 = getelementptr inbounds [4 x i64], ptr %153, i64 0, i64 0
  store i64 %151, ptr %154, align 8, !tbaa !8
  %155 = load ptr, ptr %8, align 8, !tbaa !12
  %156 = getelementptr inbounds i8, ptr %155, i64 8
  store ptr %156, ptr %8, align 8, !tbaa !12
  %157 = load ptr, ptr %5, align 8, !tbaa !32
  %158 = getelementptr inbounds nuw %struct.XXH64_state_s, ptr %157, i32 0, i32 1
  %159 = getelementptr inbounds [4 x i64], ptr %158, i64 0, i64 1
  %160 = load i64, ptr %159, align 8, !tbaa !8
  %161 = load ptr, ptr %8, align 8, !tbaa !12
  %162 = call noundef i64 @_ZL12XXH_readLE64PKv(ptr noundef %161)
  %163 = call noundef i64 @_ZL11XXH64_roundmm(i64 noundef %160, i64 noundef %162)
  %164 = load ptr, ptr %5, align 8, !tbaa !32
  %165 = getelementptr inbounds nuw %struct.XXH64_state_s, ptr %164, i32 0, i32 1
  %166 = getelementptr inbounds [4 x i64], ptr %165, i64 0, i64 1
  store i64 %163, ptr %166, align 8, !tbaa !8
  %167 = load ptr, ptr %8, align 8, !tbaa !12
  %168 = getelementptr inbounds i8, ptr %167, i64 8
  store ptr %168, ptr %8, align 8, !tbaa !12
  %169 = load ptr, ptr %5, align 8, !tbaa !32
  %170 = getelementptr inbounds nuw %struct.XXH64_state_s, ptr %169, i32 0, i32 1
  %171 = getelementptr inbounds [4 x i64], ptr %170, i64 0, i64 2
  %172 = load i64, ptr %171, align 8, !tbaa !8
  %173 = load ptr, ptr %8, align 8, !tbaa !12
  %174 = call noundef i64 @_ZL12XXH_readLE64PKv(ptr noundef %173)
  %175 = call noundef i64 @_ZL11XXH64_roundmm(i64 noundef %172, i64 noundef %174)
  %176 = load ptr, ptr %5, align 8, !tbaa !32
  %177 = getelementptr inbounds nuw %struct.XXH64_state_s, ptr %176, i32 0, i32 1
  %178 = getelementptr inbounds [4 x i64], ptr %177, i64 0, i64 2
  store i64 %175, ptr %178, align 8, !tbaa !8
  %179 = load ptr, ptr %8, align 8, !tbaa !12
  %180 = getelementptr inbounds i8, ptr %179, i64 8
  store ptr %180, ptr %8, align 8, !tbaa !12
  %181 = load ptr, ptr %5, align 8, !tbaa !32
  %182 = getelementptr inbounds nuw %struct.XXH64_state_s, ptr %181, i32 0, i32 1
  %183 = getelementptr inbounds [4 x i64], ptr %182, i64 0, i64 3
  %184 = load i64, ptr %183, align 8, !tbaa !8
  %185 = load ptr, ptr %8, align 8, !tbaa !12
  %186 = call noundef i64 @_ZL12XXH_readLE64PKv(ptr noundef %185)
  %187 = call noundef i64 @_ZL11XXH64_roundmm(i64 noundef %184, i64 noundef %186)
  %188 = load ptr, ptr %5, align 8, !tbaa !32
  %189 = getelementptr inbounds nuw %struct.XXH64_state_s, ptr %188, i32 0, i32 1
  %190 = getelementptr inbounds [4 x i64], ptr %189, i64 0, i64 3
  store i64 %187, ptr %190, align 8, !tbaa !8
  %191 = load ptr, ptr %8, align 8, !tbaa !12
  %192 = getelementptr inbounds i8, ptr %191, i64 8
  store ptr %192, ptr %8, align 8, !tbaa !12
  br label %193

193:                                              ; preds = %144
  %194 = load ptr, ptr %8, align 8, !tbaa !12
  %195 = load ptr, ptr %11, align 8, !tbaa !12
  %196 = icmp ule ptr %194, %195
  br i1 %196, label %144, label %197, !llvm.loop !37

197:                                              ; preds = %193
  call void @llvm.lifetime.end.p0(i64 8, ptr %11) #22
  br label %198

198:                                              ; preds = %197, %136
  %199 = load ptr, ptr %8, align 8, !tbaa !12
  %200 = load ptr, ptr %9, align 8, !tbaa !12
  %201 = icmp ult ptr %199, %200
  br i1 %201, label %202, label %221

202:                                              ; preds = %198
  %203 = load ptr, ptr %5, align 8, !tbaa !32
  %204 = getelementptr inbounds nuw %struct.XXH64_state_s, ptr %203, i32 0, i32 2
  %205 = getelementptr inbounds [4 x i64], ptr %204, i64 0, i64 0
  %206 = load ptr, ptr %8, align 8, !tbaa !12
  %207 = load ptr, ptr %9, align 8, !tbaa !12
  %208 = load ptr, ptr %8, align 8, !tbaa !12
  %209 = ptrtoint ptr %207 to i64
  %210 = ptrtoint ptr %208 to i64
  %211 = sub i64 %209, %210
  %212 = call noundef ptr @_ZL10XXH_memcpyPvPKvm(ptr noundef %205, ptr noundef %206, i64 noundef %211)
  %213 = load ptr, ptr %9, align 8, !tbaa !12
  %214 = load ptr, ptr %8, align 8, !tbaa !12
  %215 = ptrtoint ptr %213 to i64
  %216 = ptrtoint ptr %214 to i64
  %217 = sub i64 %215, %216
  %218 = trunc i64 %217 to i32
  %219 = load ptr, ptr %5, align 8, !tbaa !32
  %220 = getelementptr inbounds nuw %struct.XXH64_state_s, ptr %219, i32 0, i32 3
  store i32 %218, ptr %220, align 8, !tbaa !36
  br label %221

221:                                              ; preds = %202, %198
  store i32 0, ptr %10, align 4
  br label %222

222:                                              ; preds = %221, %36
  call void @llvm.lifetime.end.p0(i64 8, ptr %9) #22
  call void @llvm.lifetime.end.p0(i64 8, ptr %8) #22
  %223 = load i32, ptr %10, align 4
  switch i32 %223, label %227 [
    i32 0, label %224
    i32 1, label %225
  ]

224:                                              ; preds = %222
  store i32 0, ptr %4, align 4
  br label %225

225:                                              ; preds = %224, %222, %18
  %226 = load i32, ptr %4, align 4
  ret i32 %226

227:                                              ; preds = %222
  unreachable
}