; Function Attrs: mustprogress nofree norecurse nosync nounwind memory(argmem: readwrite, inaccessiblemem: write) uwtable
define noundef i32 @ROCKSDB_XXH64_update(ptr noundef captures(none) %0, ptr noundef captures(none) %1, i64 noundef %2) local_unnamed_addr #12 {
  %4 = icmp eq ptr %1, null
  br i1 %4, label %5, label %7

5:                                                ; preds = %3
  %6 = icmp eq i64 %2, 0
  tail call void @llvm.assume(i1 %6)
  br label %99

7:                                                ; preds = %3
  %8 = getelementptr inbounds nuw i8, ptr %1, i64 %2
  %9 = load i64, ptr %0, align 8, !tbaa !24
  %10 = add i64 %9, %2
  store i64 %10, ptr %0, align 8, !tbaa !24
  %11 = getelementptr inbounds nuw i8, ptr %0, i64 72
  %12 = load i32, ptr %11, align 8, !tbaa !26
  %13 = zext i32 %12 to i64
  %14 = add i64 %2, %13
  %15 = icmp ult i64 %14, 32
  br i1 %15, label %16, label %22

16:                                               ; preds = %7
  %17 = getelementptr inbounds nuw i8, ptr %0, i64 40
  %18 = getelementptr inbounds nuw i8, ptr %17, i64 %13
  tail call void @llvm.memcpy.p0.p0.i64(ptr nonnull align 1 %18, ptr nonnull readonly align 1 %1, i64 %2, i1 false)
  %19 = trunc i64 %2 to i32
  %20 = load i32, ptr %11, align 8, !tbaa !26
  %21 = add i32 %20, %19
  store i32 %21, ptr %11, align 8, !tbaa !26
  br label %99

22:                                               ; preds = %7
  %.not = icmp eq i32 %12, 0
  br i1 %.not, label %59, label %23

23:                                               ; preds = %22
  %24 = getelementptr inbounds nuw i8, ptr %0, i64 40
  %25 = getelementptr inbounds nuw i8, ptr %24, i64 %13
  %26 = sub i32 32, %12
  %27 = zext i32 %26 to i64
  tail call void @llvm.memcpy.p0.p0.i64(ptr nonnull align 1 %25, ptr nonnull readonly align 1 %1, i64 %27, i1 false)
  %28 = getelementptr inbounds nuw i8, ptr %0, i64 8
  %29 = load i64, ptr %28, align 8, !tbaa !19
  %.val79 = load i64, ptr %24, align 1, !tbaa !19
  %30 = mul i64 %.val79, -4417276706812531889
  %31 = add i64 %30, %29
  %32 = tail call i64 @llvm.fshl.i64(i64 %31, i64 %31, i64 31)
  %33 = mul i64 %32, -7046029288634856825
  store i64 %33, ptr %28, align 8, !tbaa !19
  %34 = getelementptr inbounds nuw i8, ptr %0, i64 16
  %35 = load i64, ptr %34, align 8, !tbaa !19
  %36 = getelementptr inbounds nuw i8, ptr %0, i64 48
  %.val78 = load i64, ptr %36, align 1, !tbaa !19
  %37 = mul i64 %.val78, -4417276706812531889
  %38 = add i64 %37, %35
  %39 = tail call i64 @llvm.fshl.i64(i64 %38, i64 %38, i64 31)
  %40 = mul i64 %39, -7046029288634856825
  store i64 %40, ptr %34, align 8, !tbaa !19
  %41 = getelementptr inbounds nuw i8, ptr %0, i64 24
  %42 = load i64, ptr %41, align 8, !tbaa !19
  %43 = getelementptr inbounds nuw i8, ptr %0, i64 56
  %.val77 = load i64, ptr %43, align 1, !tbaa !19
  %44 = mul i64 %.val77, -4417276706812531889
  %45 = add i64 %44, %42
  %46 = tail call i64 @llvm.fshl.i64(i64 %45, i64 %45, i64 31)
  %47 = mul i64 %46, -7046029288634856825
  store i64 %47, ptr %41, align 8, !tbaa !19
  %48 = getelementptr inbounds nuw i8, ptr %0, i64 32
  %49 = load i64, ptr %48, align 8, !tbaa !19
  %50 = getelementptr inbounds nuw i8, ptr %0, i64 64
  %.val76 = load i64, ptr %50, align 1, !tbaa !19
  %51 = mul i64 %.val76, -4417276706812531889
  %52 = add i64 %51, %49
  %53 = tail call i64 @llvm.fshl.i64(i64 %52, i64 %52, i64 31)
  %54 = mul i64 %53, -7046029288634856825
  store i64 %54, ptr %48, align 8, !tbaa !19
  %55 = load i32, ptr %11, align 8, !tbaa !26
  %56 = sub i32 32, %55
  %57 = zext i32 %56 to i64
  %58 = getelementptr inbounds nuw i8, ptr %1, i64 %57
  store i32 0, ptr %11, align 8, !tbaa !26
  br label %59

59:                                               ; preds = %23, %22
  %.067 = phi ptr [ %58, %23 ], [ %1, %22 ]
  %60 = getelementptr inbounds nuw i8, ptr %.067, i64 32
  %.not72 = icmp ugt ptr %60, %8
  br i1 %.not72, label %.loopexit, label %61

61:                                               ; preds = %59
  %62 = getelementptr inbounds i8, ptr %8, i64 -32
  %63 = getelementptr inbounds nuw i8, ptr %0, i64 8
  %64 = getelementptr inbounds nuw i8, ptr %0, i64 16
  %65 = getelementptr inbounds nuw i8, ptr %0, i64 24
  %66 = getelementptr inbounds nuw i8, ptr %0, i64 32
  %.promoted = load i64, ptr %63, align 8, !tbaa !19
  %.promoted80 = load i64, ptr %64, align 8, !tbaa !19
  %.promoted81 = load i64, ptr %65, align 8, !tbaa !19
  %.promoted82 = load i64, ptr %66, align 8, !tbaa !19
  br label %67

67:                                               ; preds = %67, %61
  %68 = phi i64 [ %.promoted82, %61 ], [ %90, %67 ]
  %69 = phi i64 [ %.promoted81, %61 ], [ %85, %67 ]
  %70 = phi i64 [ %.promoted80, %61 ], [ %80, %67 ]
  %71 = phi i64 [ %.promoted, %61 ], [ %75, %67 ]
  %.2 = phi ptr [ %.067, %61 ], [ %91, %67 ]
  %.2.val = load i64, ptr %.2, align 1, !tbaa !19
  %72 = mul i64 %.2.val, -4417276706812531889
  %73 = add i64 %72, %71
  %74 = tail call i64 @llvm.fshl.i64(i64 %73, i64 %73, i64 31)
  %75 = mul i64 %74, -7046029288634856825
  store i64 %75, ptr %63, align 8, !tbaa !19
  %76 = getelementptr inbounds nuw i8, ptr %.2, i64 8
  %.val75 = load i64, ptr %76, align 1, !tbaa !19
  %77 = mul i64 %.val75, -4417276706812531889
  %78 = add i64 %77, %70
  %79 = tail call i64 @llvm.fshl.i64(i64 %78, i64 %78, i64 31)
  %80 = mul i64 %79, -7046029288634856825
  store i64 %80, ptr %64, align 8, !tbaa !19
  %81 = getelementptr inbounds nuw i8, ptr %.2, i64 16
  %.val74 = load i64, ptr %81, align 1, !tbaa !19
  %82 = mul i64 %.val74, -4417276706812531889
  %83 = add i64 %82, %69
  %84 = tail call i64 @llvm.fshl.i64(i64 %83, i64 %83, i64 31)
  %85 = mul i64 %84, -7046029288634856825
  store i64 %85, ptr %65, align 8, !tbaa !19
  %86 = getelementptr inbounds nuw i8, ptr %.2, i64 24
  %.val = load i64, ptr %86, align 1, !tbaa !19
  %87 = mul i64 %.val, -4417276706812531889
  %88 = add i64 %87, %68
  %89 = tail call i64 @llvm.fshl.i64(i64 %88, i64 %88, i64 31)
  %90 = mul i64 %89, -7046029288634856825
  store i64 %90, ptr %66, align 8, !tbaa !19
  %91 = getelementptr inbounds nuw i8, ptr %.2, i64 32
  %.not73 = icmp ugt ptr %91, %62
  br i1 %.not73, label %.loopexit, label %67, !llvm.loop !27

.loopexit:                                        ; preds = %67, %59
  %.168 = phi ptr [ %.067, %59 ], [ %91, %67 ]
  %92 = icmp ult ptr %.168, %8
  br i1 %92, label %93, label %99

93:                                               ; preds = %.loopexit
  %94 = getelementptr inbounds nuw i8, ptr %0, i64 40
  %95 = ptrtoint ptr %8 to i64
  %96 = ptrtoint ptr %.168 to i64
  %97 = sub i64 %95, %96
  tail call void @llvm.memcpy.p0.p0.i64(ptr nonnull align 1 %94, ptr readonly align 1 %.168, i64 %97, i1 false)
  %98 = trunc i64 %97 to i32
  store i32 %98, ptr %11, align 8, !tbaa !26
  br label %99

99:                                               ; preds = %16, %93, %.loopexit, %5
  ret i32 0
}